; Function Attrs: mustprogress uwtable
define hidden void @_ZN4cvc58internal6theory11quantifiers15FirstOrderModel21getAssertedQuantifierEjb(ptr dead_on_unwind noalias writable writeonly sret(%"class.cvc5::internal::NodeTemplate") align 8 captures(none) initializes((0, 8)) %0, ptr noundef nonnull readonly align 8 captures(none) dereferenceable(664) %1, i32 noundef %2, i1 noundef zeroext %3) local_unnamed_addr #3 align 2 {
  br i1 %3, label %5, label %9

5:                                                ; preds = %4
  %6 = getelementptr inbounds nuw i8, ptr %1, i64 368
  %7 = load i8, ptr %6, align 8, !tbaa !135, !range !85, !noundef !86
  %8 = trunc nuw i8 %7 to i1
  br i1 %8, label %29, label %9

9:                                                ; preds = %5, %4
  %10 = zext i32 %2 to i64
  %11 = getelementptr inbounds nuw i8, ptr %1, i64 272
  %12 = load ptr, ptr %11, align 8, !tbaa !79
  %13 = getelementptr inbounds nuw %"class.cvc5::internal::NodeTemplate", ptr %12, i64 %10
  %14 = load ptr, ptr %13, align 8, !tbaa !73
  store ptr %14, ptr %0, align 8, !tbaa !73
  %15 = load i64, ptr %14, align 8
  %16 = lshr i64 %15, 40
  %17 = trunc nuw nsw i64 %16 to i32
  %18 = and i32 %17, 1048575
  %19 = icmp samesign ult i32 %18, 1048574
  br i1 %19, label %20, label %25, !prof !122

20:                                               ; preds = %9
  %21 = add i64 %15, 1099511627776
  %22 = and i64 %21, 1152920405095219200
  %23 = and i64 %15, -1152920405095219201
  %24 = or disjoint i64 %22, %23
  store i64 %24, ptr %14, align 8
  br label %_ZN4cvc58internal12NodeTemplateILb1EEC2ERKS2_.exit

25:                                               ; preds = %9
  %26 = icmp eq i32 %18, 1048574
  br i1 %26, label %27, label %_ZN4cvc58internal12NodeTemplateILb1EEC2ERKS2_.exit, !prof !81

27:                                               ; preds = %25
  %28 = or i64 %15, 1152920405095219200
  store i64 %28, ptr %14, align 8
  tail call void @_ZN4cvc58internal4expr9NodeValue20markRefCountMaxedOutEv(ptr noundef nonnull align 8 dereferenceable(24) %14)
  br label %_ZN4cvc58internal12NodeTemplateILb1EEC2ERKS2_.exit

29:                                               ; preds = %5
  %30 = getelementptr inbounds nuw i8, ptr %1, i64 344
  %31 = zext i32 %2 to i64
  %32 = load ptr, ptr %30, align 8, !tbaa !79
  %33 = getelementptr inbounds nuw %"class.cvc5::internal::NodeTemplate", ptr %32, i64 %31
  %34 = load ptr, ptr %33, align 8, !tbaa !73
  store ptr %34, ptr %0, align 8, !tbaa !73
  %35 = load i64, ptr %34, align 8
  %36 = lshr i64 %35, 40
  %37 = trunc nuw nsw i64 %36 to i32
  %38 = and i32 %37, 1048575
  %39 = icmp samesign ult i32 %38, 1048574
  br i1 %39, label %40, label %45, !prof !122

40:                                               ; preds = %29
  %41 = add i64 %35, 1099511627776
  %42 = and i64 %41, 1152920405095219200
  %43 = and i64 %35, -1152920405095219201
  %44 = or disjoint i64 %42, %43
  store i64 %44, ptr %34, align 8
  br label %_ZN4cvc58internal12NodeTemplateILb1EEC2ERKS2_.exit

45:                                               ; preds = %29
  %46 = icmp eq i32 %38, 1048574
  br i1 %46, label %47, label %_ZN4cvc58internal12NodeTemplateILb1EEC2ERKS2_.exit, !prof !81

47:                                               ; preds = %45
  %48 = or i64 %35, 1152920405095219200
  store i64 %48, ptr %34, align 8
  tail call void @_ZN4cvc58internal4expr9NodeValue20markRefCountMaxedOutEv(ptr noundef nonnull align 8 dereferenceable(24) %34)
  br label %_ZN4cvc58internal12NodeTemplateILb1EEC2ERKS2_.exit

_ZN4cvc58internal12NodeTemplateILb1EEC2ERKS2_.exit: ; preds = %47, %45, %40, %27, %25, %20
  ret void
}